; Function Attrs: nounwind sspstrong uwtable
define dso_local range(i32 1, 0) i32 @qemu_fdt_get_phandle(ptr noundef %fdt, ptr noundef %path) local_unnamed_addr #0 {
entry:
  %call.i = tail call i32 @fdt_path_offset(ptr noundef %fdt, ptr noundef %path) #12
  %cmp.i = icmp slt i32 %call.i, 0
  br i1 %cmp.i, label %if.then.i, label %findnode_nofail.exit

if.then.i:                                        ; preds = %entry
  %call1.i = tail call ptr @fdt_strerror(i32 noundef %call.i) #12
  tail call void (ptr, ...) @error_report(ptr noundef nonnull @.str.39, ptr noundef nonnull @__func__.findnode_nofail, ptr noundef %path, ptr noundef %call1.i) #12
  tail call void @exit(i32 noundef 1) #13
  unreachable

findnode_nofail.exit:                             ; preds = %entry
  %call1 = tail call i32 @fdt_get_phandle(ptr noundef %fdt, i32 noundef %call.i) #12
  %cmp = icmp eq i32 %call1, 0
  br i1 %cmp, label %if.then, label %if.end

if.then:                                          ; preds = %findnode_nofail.exit
  %call2 = tail call ptr @fdt_strerror(i32 noundef 0) #12
  tail call void (ptr, ...) @error_report(ptr noundef nonnull @.str.18, ptr noundef nonnull @__func__.qemu_fdt_get_phandle, ptr noundef %path, ptr noundef %call2) #12
  tail call void @exit(i32 noundef 1) #13
  unreachable

if.end:                                           ; preds = %findnode_nofail.exit
  ret i32 %call1
}